target datalayout = "e-m:e-p270:32:32-p271:32:32-p272:64:64-i64:64-i128:128-f80:128-n8:16:32:64-S128"
target triple = "x86_64-pc-linux-gnu"

%"struct.toml::v3::date" = type { i16, i8, i8 }
%"struct.toml::v3::time" = type { i8, i8, i8, i32 }
%"struct.toml::v3::time_offset" = type { i16 }
%"struct.toml::v3::stdopt::date_time" = type { %"struct.toml::v3::date", %"struct.toml::v3::time", %"class.std::optional" }
%"class.std::optional" = type { %"struct.std::_Optional_base" }
%"struct.std::_Optional_base" = type { %"struct.std::_Optional_payload" }
%"struct.std::_Optional_payload" = type { %"struct.std::_Optional_payload_base.base", i8 }
%"struct.std::_Optional_payload_base.base" = type <{ %"union.std::_Optional_payload_base<toml::v3::time_offset>::_Storage", i8 }>
%"union.std::_Optional_payload_base<toml::v3::time_offset>::_Storage" = type { %"struct.toml::v3::time_offset" }
%"struct.std::_Optional_payload_base" = type <{ %"union.std::_Optional_payload_base<toml::v3::time_offset>::_Storage", i8, i8 }>

; Function Attrs: mustprogress nounwind uwtable
define linkonce_odr noundef nonnull align 2 dereferenceable(2) ptr @_ZNKSt22_Optional_payload_baseIN4toml2v311time_offsetEE6_M_getEv(ptr noundef nonnull align 2 dereferenceable(3) %0) #2 comdat align 2 {
  %2 = alloca ptr, align 8
  store ptr %0, ptr %2, align 8, !tbaa !431
  %3 = load ptr, ptr %2, align 8
  %4 = getelementptr inbounds nuw %"struct.std::_Optional_payload_base", ptr %3, i32 0, i32 0
  ret ptr %4
}

; Function Attrs: mustprogress nounwind uwtable
define linkonce_odr noundef nonnull align 2 dereferenceable(2) ptr @_ZNKSt19_Optional_base_implIN4toml2v311time_offsetESt14_Optional_baseIS2_Lb1ELb1EEE6_M_getEv(ptr noundef nonnull align 1 dereferenceable(1) %0) #2 comdat align 2 {
  %2 = alloca ptr, align 8
  store ptr %0, ptr %2, align 8, !tbaa !427
  %3 = load ptr, ptr %2, align 8
  br label %4

4:                                                ; preds = %1
  br label %5

5:                                                ; preds = %4
  br label %6

6:                                                ; preds = %5
  %7 = getelementptr inbounds nuw %"struct.std::_Optional_base", ptr %3, i32 0, i32 0
  %8 = call noundef nonnull align 2 dereferenceable(2) ptr @_ZNKSt22_Optional_payload_baseIN4toml2v311time_offsetEE6_M_getEv(ptr noundef nonnull align 2 dereferenceable(3) %7) #36
  ret ptr %8
}

; Function Attrs: mustprogress nounwind uwtable
define linkonce_odr noundef zeroext i1 @_ZNKSt19_Optional_base_implIN4toml2v311time_offsetESt14_Optional_baseIS2_Lb1ELb1EEE13_M_is_engagedEv(ptr noundef nonnull align 1 dereferenceable(1) %0) #2 comdat align 2 {
  %2 = alloca ptr, align 8
  store ptr %0, ptr %2, align 8, !tbaa !427
  %3 = load ptr, ptr %2, align 8
  %4 = getelementptr inbounds nuw %"struct.std::_Optional_base", ptr %3, i32 0, i32 0
  %5 = getelementptr inbounds nuw %"struct.std::_Optional_payload_base", ptr %4, i32 0, i32 1
  %6 = load i8, ptr %5, align 2, !tbaa !429, !range !69, !noundef !70
  %7 = trunc i8 %6 to i1
  ret i1 %7
}

; Function Attrs: mustprogress nounwind uwtable
define linkonce_odr noundef nonnull align 2 dereferenceable(2) ptr @_ZNKRSt8optionalIN4toml2v311time_offsetEEdeEv(ptr noundef nonnull align 2 dereferenceable(4) %0) #2 comdat align 2 {
  %2 = alloca ptr, align 8
  store ptr %0, ptr %2, align 8, !tbaa !95
  %3 = load ptr, ptr %2, align 8
  %4 = call noundef nonnull align 2 dereferenceable(2) ptr @_ZNKSt19_Optional_base_implIN4toml2v311time_offsetESt14_Optional_baseIS2_Lb1ELb1EEE6_M_getEv(ptr noundef nonnull align 1 dereferenceable(1) %3) #36
  ret ptr %4
}

; Function Attrs: mustprogress nounwind uwtable
define linkonce_odr noundef zeroext i1 @_ZNKSt8optionalIN4toml2v311time_offsetEEcvbEv(ptr noundef nonnull align 2 dereferenceable(4) %0) #2 comdat align 2 {
  %2 = alloca ptr, align 8
  store ptr %0, ptr %2, align 8, !tbaa !95
  %3 = load ptr, ptr %2, align 8
  %4 = call noundef zeroext i1 @_ZNKSt19_Optional_base_implIN4toml2v311time_offsetESt14_Optional_baseIS2_Lb1ELb1EEE13_M_is_engagedEv(ptr noundef nonnull align 1 dereferenceable(1) %3) #36
  ret i1 %4
}

; Function Attrs: mustprogress uwtable
define void @_ZN4toml2v34impl15print_to_streamERSoRKNS0_6stdopt9date_timeE(ptr noundef nonnull align 8 dereferenceable(8) %0, ptr noundef nonnull align 4 dereferenceable(16) %1) #0 {
  %3 = alloca ptr, align 8
  %4 = alloca ptr, align 8
  store ptr %0, ptr %3, align 8, !tbaa !3
  store ptr %1, ptr %4, align 8, !tbaa !93
  %5 = load ptr, ptr %3, align 8, !tbaa !3
  %6 = load ptr, ptr %4, align 8, !tbaa !93
  %7 = getelementptr inbounds nuw %"struct.toml::v3::stdopt::date_time", ptr %6, i32 0, i32 0
  call void @_ZN4toml2v34impl15print_to_streamERSoRKNS0_4dateE(ptr noundef nonnull align 8 dereferenceable(8) %5, ptr noundef nonnull align 2 dereferenceable(4) %7)
  %8 = load ptr, ptr %3, align 8, !tbaa !3
  %9 = call noundef nonnull align 8 dereferenceable(8) ptr @_ZNSo3putEc(ptr noundef nonnull align 8 dereferenceable(8) %8, i8 noundef signext 84)
  %10 = load ptr, ptr %3, align 8, !tbaa !3
  %11 = load ptr, ptr %4, align 8, !tbaa !93
  %12 = getelementptr inbounds nuw %"struct.toml::v3::stdopt::date_time", ptr %11, i32 0, i32 1
  call void @_ZN4toml2v34impl15print_to_streamERSoRKNS0_4timeE(ptr noundef nonnull align 8 dereferenceable(8) %10, ptr noundef nonnull align 4 dereferenceable(8) %12)
  %13 = load ptr, ptr %4, align 8, !tbaa !93
  %14 = getelementptr inbounds nuw %"struct.toml::v3::stdopt::date_time", ptr %13, i32 0, i32 2
  %15 = call noundef zeroext i1 @_ZNKSt8optionalIN4toml2v311time_offsetEEcvbEv(ptr noundef nonnull align 2 dereferenceable(4) %14) #36
  br i1 %15, label %16, label %21

16:                                               ; preds = %2
  %17 = load ptr, ptr %3, align 8, !tbaa !3
  %18 = load ptr, ptr %4, align 8, !tbaa !93
  %19 = getelementptr inbounds nuw %"struct.toml::v3::stdopt::date_time", ptr %18, i32 0, i32 2
  %20 = call noundef nonnull align 2 dereferenceable(2) ptr @_ZNKRSt8optionalIN4toml2v311time_offsetEEdeEv(ptr noundef nonnull align 2 dereferenceable(4) %19) #36
  call void @_ZN4toml2v34impl15print_to_streamERSoRKNS0_11time_offsetE(ptr noundef nonnull align 8 dereferenceable(8) %17, ptr noundef nonnull align 2 dereferenceable(2) %20)
  br label %21

21:                                               ; preds = %16, %2
  ret void
}