; Function Attrs: mustprogress uwtable
define void @_ZN4toml2v34impl15print_to_streamERSoRKNS0_6stdopt9date_timeE(ptr noundef nonnull align 8 dereferenceable(8) %0, ptr noundef nonnull readonly align 4 captures(none) dereferenceable(16) %1) local_unnamed_addr #0 {
  tail call void @_ZN4toml2v34impl15print_to_streamERSoRKNS0_4dateE(ptr noundef nonnull align 8 dereferenceable(8) %0, ptr noundef nonnull align 2 dereferenceable(4) %1)
  %3 = tail call noundef nonnull align 8 dereferenceable(8) ptr @_ZNSo3putEc(ptr noundef nonnull align 8 dereferenceable(8) %0, i8 noundef signext 84)
  %4 = getelementptr inbounds nuw i8, ptr %1, i64 4
  tail call void @_ZN4toml2v34impl15print_to_streamERSoRKNS0_4timeE(ptr noundef nonnull align 8 dereferenceable(8) %0, ptr noundef nonnull align 4 dereferenceable(8) %4)
  %5 = getelementptr inbounds nuw i8, ptr %1, i64 14
  %6 = load i8, ptr %5, align 2, !tbaa !92, !range !95, !noundef !96
  %7 = trunc nuw i8 %6 to i1
  br i1 %7, label %8, label %10

8:                                                ; preds = %2
  %9 = getelementptr inbounds nuw i8, ptr %1, i64 12
  tail call void @_ZN4toml2v34impl15print_to_streamERSoRKNS0_11time_offsetE(ptr noundef nonnull align 8 dereferenceable(8) %0, ptr noundef nonnull align 2 dereferenceable(2) %9)
  br label %10

10:                                               ; preds = %8, %2
  ret void
}